target datalayout = "e-m:e-p270:32:32-p271:32:32-p272:64:64-i64:64-i128:128-f80:128-n8:16:32:64-S128"
target triple = "x86_64-pc-linux-gnu"

%struct.msghdr = type { ptr, i32, ptr, i64, ptr, i64, i32 }

; Function Attrs: nounwind sspstrong uwtable
define i64 @rsock_recvmsg(i32 noundef %0, ptr noundef %1, i32 noundef %2) #0 {
  %4 = alloca i32, align 4
  %5 = alloca ptr, align 8
  %6 = alloca i32, align 4
  %7 = alloca i64, align 8
  %8 = alloca i32, align 4
  store i32 %0, ptr %4, align 4, !tbaa !10
  store ptr %1, ptr %5, align 8, !tbaa !45
  store i32 %2, ptr %6, align 4, !tbaa !10
  call void @llvm.lifetime.start.p0(i64 8, ptr %7) #21
  call void @llvm.lifetime.start.p0(i64 4, ptr %8) #21
  %9 = load i32, ptr %6, align 4, !tbaa !10
  %10 = or i32 %9, 1073741824
  store i32 %10, ptr %6, align 4, !tbaa !10
  %11 = load ptr, ptr %5, align 8, !tbaa !45
  %12 = getelementptr inbounds nuw %struct.msghdr, ptr %11, i32 0, i32 1
  %13 = load i32, ptr %12, align 8, !tbaa !28
  store i32 %13, ptr %8, align 4, !tbaa !10
  %14 = load i32, ptr %4, align 4, !tbaa !10
  %15 = load ptr, ptr %5, align 8, !tbaa !45
  %16 = load i32, ptr %6, align 4, !tbaa !10
  %17 = call i64 @recvmsg(i32 noundef %14, ptr noundef %15, i32 noundef %16)
  store i64 %17, ptr %7, align 8, !tbaa !6
  %18 = load i64, ptr %7, align 8, !tbaa !6
  %19 = icmp ne i64 %18, -1
  br i1 %19, label %20, label %30

20:                                               ; preds = %3
  %21 = load i32, ptr %8, align 4, !tbaa !10
  %22 = load ptr, ptr %5, align 8, !tbaa !45
  %23 = getelementptr inbounds nuw %struct.msghdr, ptr %22, i32 0, i32 1
  %24 = load i32, ptr %23, align 8, !tbaa !28
  %25 = icmp ult i32 %21, %24
  br i1 %25, label %26, label %30

26:                                               ; preds = %20
  %27 = load i32, ptr %8, align 4, !tbaa !10
  %28 = load ptr, ptr %5, align 8, !tbaa !45
  %29 = getelementptr inbounds nuw %struct.msghdr, ptr %28, i32 0, i32 1
  store i32 %27, ptr %29, align 8, !tbaa !28
  br label %30

30:                                               ; preds = %26, %20, %3
  %31 = load i64, ptr %7, align 8, !tbaa !6
  call void @llvm.lifetime.end.p0(i64 4, ptr %8) #21
  call void @llvm.lifetime.end.p0(i64 8, ptr %7) #21
  ret i64 %31
}