; Function Attrs: nounwind sspstrong uwtable
define i64 @rsock_recvmsg(i32 noundef %0, ptr noundef %1, i32 noundef %2) local_unnamed_addr #0 {
  %4 = or i32 %2, 1073741824
  %5 = getelementptr inbounds nuw i8, ptr %1, i64 8
  %6 = load i32, ptr %5, align 8, !tbaa !38
  %7 = tail call i64 @recvmsg(i32 noundef %0, ptr noundef %1, i32 noundef %4) #10
  %.not = icmp eq i64 %7, -1
  br i1 %.not, label %12, label %8

8:                                                ; preds = %3
  %9 = load i32, ptr %5, align 8, !tbaa !38
  %10 = icmp ult i32 %6, %9
  br i1 %10, label %11, label %12

11:                                               ; preds = %8
  store i32 %6, ptr %5, align 8, !tbaa !38
  br label %12

12:                                               ; preds = %11, %8, %3
  ret i64 %7
}